target datalayout = "e-m:e-p270:32:32-p271:32:32-p272:64:64-i64:64-i128:128-f80:128-n8:16:32:64-S128"
target triple = "x86_64-pc-linux-gnu"

@.str = private unnamed_addr constant [3 x i8] c"%s\00", align 1
@.str.4 = private unnamed_addr constant [2 x i8] c"*\00", align 1

; Function Attrs: mustprogress nounwind uwtable
define hidden noundef ptr @_ZN11StringUtils13strstr_nocaseEPKcS1_(ptr noundef %0, ptr noundef %1) #1 align 2 {
  %3 = alloca ptr, align 8
  %4 = alloca ptr, align 8
  %5 = alloca ptr, align 8
  %6 = alloca i64, align 8
  %7 = alloca i8, align 1
  %8 = alloca i64, align 8
  store ptr %0, ptr %4, align 8
  store ptr %1, ptr %5, align 8
  %9 = load ptr, ptr %5, align 8
  %10 = getelementptr inbounds i8, ptr %9, i64 0
  %11 = load i8, ptr %10, align 1
  %12 = sext i8 %11 to i32
  %13 = icmp eq i32 %12, 0
  br i1 %13, label %14, label %16

14:                                               ; preds = %2
  %15 = load ptr, ptr %4, align 8
  store ptr %15, ptr %3, align 8
  br label %75

16:                                               ; preds = %2
  store i64 0, ptr %6, align 8
  br label %17

17:                                               ; preds = %71, %16
  %18 = load ptr, ptr %4, align 8
  %19 = load i64, ptr %6, align 8
  %20 = getelementptr inbounds i8, ptr %18, i64 %19
  %21 = load i8, ptr %20, align 1
  %22 = sext i8 %21 to i32
  %23 = icmp ne i32 %22, 0
  br i1 %23, label %24, label %74

24:                                               ; preds = %17
  store i8 1, ptr %7, align 1
  store i64 0, ptr %8, align 8
  br label %25

25:                                               ; preds = %60, %24
  %26 = load ptr, ptr %5, align 8
  %27 = load i64, ptr %8, align 8
  %28 = getelementptr inbounds i8, ptr %26, i64 %27
  %29 = load i8, ptr %28, align 1
  %30 = sext i8 %29 to i32
  %31 = icmp ne i32 %30, 0
  br i1 %31, label %32, label %63

32:                                               ; preds = %25
  %33 = load ptr, ptr %4, align 8
  %34 = load i64, ptr %6, align 8
  %35 = load i64, ptr %8, align 8
  %36 = add i64 %34, %35
  %37 = getelementptr inbounds i8, ptr %33, i64 %36
  %38 = load i8, ptr %37, align 1
  %39 = sext i8 %38 to i32
  %40 = icmp eq i32 %39, 0
  br i1 %40, label %41, label %42

41:                                               ; preds = %32
  store ptr null, ptr %3, align 8
  br label %75

42:                                               ; preds = %32
  %43 = load ptr, ptr %4, align 8
  %44 = load i64, ptr %6, align 8
  %45 = load i64, ptr %8, align 8
  %46 = add i64 %44, %45
  %47 = getelementptr inbounds i8, ptr %43, i64 %46
  %48 = load i8, ptr %47, align 1
  %49 = sext i8 %48 to i32
  %50 = call i32 @tolower(i32 noundef %49) #6
  %51 = load ptr, ptr %5, align 8
  %52 = load i64, ptr %8, align 8
  %53 = getelementptr inbounds i8, ptr %51, i64 %52
  %54 = load i8, ptr %53, align 1
  %55 = sext i8 %54 to i32
  %56 = call i32 @tolower(i32 noundef %55) #6
  %57 = icmp ne i32 %50, %56
  br i1 %57, label %58, label %59

58:                                               ; preds = %42
  store i8 0, ptr %7, align 1
  br label %63

59:                                               ; preds = %42
  br label %60

60:                                               ; preds = %59
  %61 = load i64, ptr %8, align 8
  %62 = add i64 %61, 1
  store i64 %62, ptr %8, align 8
  br label %25, !llvm.loop !10

63:                                               ; preds = %58, %25
  %64 = load i8, ptr %7, align 1
  %65 = trunc i8 %64 to i1
  br i1 %65, label %66, label %70

66:                                               ; preds = %63
  %67 = load ptr, ptr %4, align 8
  %68 = load i64, ptr %6, align 8
  %69 = getelementptr inbounds i8, ptr %67, i64 %68
  store ptr %69, ptr %3, align 8
  br label %75

70:                                               ; preds = %63
  br label %71

71:                                               ; preds = %70
  %72 = load i64, ptr %6, align 8
  %73 = add i64 %72, 1
  store i64 %73, ptr %6, align 8
  br label %17, !llvm.loop !11

74:                                               ; preds = %17
  store ptr null, ptr %3, align 8
  br label %75

75:                                               ; preds = %74, %66, %41, %14
  %76 = load ptr, ptr %3, align 8
  ret ptr %76
}

; Function Attrs: mustprogress nounwind uwtable
define hidden noundef zeroext i1 @_ZN11StringUtils13is_star_matchEPKcS1_(ptr noundef %0, ptr noundef %1) #1 align 2 {
  %3 = alloca i1, align 1
  %4 = alloca ptr, align 8
  %5 = alloca ptr, align 8
  %6 = alloca i32, align 4
  %7 = alloca [1000 x i8], align 16
  %8 = alloca [1000 x i8], align 16
  %9 = alloca ptr, align 8
  %10 = alloca ptr, align 8
  %11 = alloca ptr, align 8
  %12 = alloca ptr, align 8
  %13 = alloca i64, align 8
  %14 = alloca ptr, align 8
  %15 = alloca i64, align 8
  store ptr %0, ptr %4, align 8
  store ptr %1, ptr %5, align 8
  store i32 1000, ptr %6, align 4
  %16 = getelementptr inbounds [1000 x i8], ptr %7, i64 0, i64 0
  %17 = load ptr, ptr %4, align 8
  %18 = call i32 (ptr, i64, ptr, ...) @jio_snprintf(ptr noundef %16, i64 noundef 1000, ptr noundef @.str, ptr noundef %17)
  %19 = load ptr, ptr %5, align 8
  store ptr %19, ptr %9, align 8
  %20 = getelementptr inbounds [1000 x i8], ptr %7, i64 0, i64 0
  store ptr %20, ptr %10, align 8
  br label %21

21:                                               ; preds = %51, %2
  %22 = load ptr, ptr %10, align 8
  %23 = call i64 @strlen(ptr noundef %22) #6
  %24 = icmp ugt i64 %23, 0
  br i1 %24, label %25, label %65

25:                                               ; preds = %21
  %26 = load ptr, ptr %10, align 8
  %27 = call noundef ptr @strstr(ptr noundef %26, ptr noundef @.str.4) #6
  store ptr %27, ptr %11, align 8
  %28 = load ptr, ptr %10, align 8
  store ptr %28, ptr %12, align 8
  %29 = load ptr, ptr %11, align 8
  %30 = icmp ne ptr %29, null
  br i1 %30, label %31, label %44

31:                                               ; preds = %25
  %32 = load ptr, ptr %11, align 8
  %33 = load ptr, ptr %12, align 8
  %34 = ptrtoint ptr %32 to i64
  %35 = ptrtoint ptr %33 to i64
  %36 = sub i64 %34, %35
  store i64 %36, ptr %13, align 8
  %37 = getelementptr inbounds [1000 x i8], ptr %8, i64 0, i64 0
  %38 = load ptr, ptr %12, align 8
  %39 = load i64, ptr %13, align 8
  %40 = call ptr @strncpy(ptr noundef %37, ptr noundef %38, i64 noundef %39) #7
  %41 = load i64, ptr %13, align 8
  %42 = getelementptr inbounds [1000 x i8], ptr %8, i64 0, i64 %41
  store i8 0, ptr %42, align 1
  %43 = getelementptr inbounds [1000 x i8], ptr %8, i64 0, i64 0
  store ptr %43, ptr %12, align 8
  br label %44

44:                                               ; preds = %31, %25
  %45 = load ptr, ptr %9, align 8
  %46 = load ptr, ptr %12, align 8
  %47 = call noundef ptr @_ZN11StringUtils13strstr_nocaseEPKcS1_(ptr noundef %45, ptr noundef %46)
  store ptr %47, ptr %14, align 8
  %48 = load ptr, ptr %14, align 8
  %49 = icmp eq ptr %48, null
  br i1 %49, label %50, label %51

50:                                               ; preds = %44
  store i1 false, ptr %3, align 1
  br label %66

51:                                               ; preds = %44
  %52 = load ptr, ptr %12, align 8
  %53 = call i64 @strlen(ptr noundef %52) #6
  store i64 %53, ptr %15, align 8
  %54 = load ptr, ptr %14, align 8
  %55 = load i64, ptr %15, align 8
  %56 = getelementptr inbounds i8, ptr %54, i64 %55
  store ptr %56, ptr %9, align 8
  %57 = load i64, ptr %15, align 8
  %58 = load ptr, ptr %11, align 8
  %59 = icmp eq ptr %58, null
  %60 = select i1 %59, i32 0, i32 1
  %61 = sext i32 %60 to i64
  %62 = add i64 %57, %61
  %63 = load ptr, ptr %10, align 8
  %64 = getelementptr inbounds i8, ptr %63, i64 %62
  store ptr %64, ptr %10, align 8
  br label %21, !llvm.loop !12

65:                                               ; preds = %21
  store i1 true, ptr %3, align 1
  br label %66

66:                                               ; preds = %65, %50
  %67 = load i1, ptr %3, align 1
  ret i1 %67
}