; Function Attrs: mustprogress nounwind uwtable
define hidden noundef zeroext i1 @_ZN11StringUtils13is_star_matchEPKcS1_(ptr noundef %0, ptr noundef readonly %1) local_unnamed_addr #6 align 2 {
  %3 = alloca [1000 x i8], align 16
  %4 = alloca [1000 x i8], align 16
  %5 = call i32 (ptr, i64, ptr, ...) @jio_snprintf(ptr noundef nonnull %3, i64 noundef 1000, ptr noundef nonnull @.str, ptr noundef %0) #11
  %char043 = load i8, ptr %3, align 16
  %.not44 = icmp eq i8 %char043, 0
  br i1 %.not44, label %_ZN11StringUtils13strstr_nocaseEPKcS1_.exit.thread, label %.lr.ph

.lr.ph:                                           ; preds = %2, %_ZN11StringUtils13strstr_nocaseEPKcS1_.exit.thread31
  %char047 = phi i8 [ %char0, %_ZN11StringUtils13strstr_nocaseEPKcS1_.exit.thread31 ], [ %char043, %2 ]
  %.02046 = phi ptr [ %35, %_ZN11StringUtils13strstr_nocaseEPKcS1_.exit.thread31 ], [ %1, %2 ]
  %.02145 = phi ptr [ %39, %_ZN11StringUtils13strstr_nocaseEPKcS1_.exit.thread31 ], [ %3, %2 ]
  %strchr = call ptr @strchr(ptr noundef nonnull dereferenceable(1) %.02145, i32 42)
  %.not25 = icmp eq ptr %strchr, null
  br i1 %.not25, label %.preheader26.i, label %6

6:                                                ; preds = %.lr.ph
  %7 = ptrtoint ptr %strchr to i64
  %8 = ptrtoint ptr %.02145 to i64
  %9 = sub i64 %7, %8
  %10 = call ptr @strncpy(ptr noundef nonnull %4, ptr noundef nonnull %.02145, i64 noundef %9) #11
  %11 = getelementptr inbounds [1000 x i8], ptr %4, i64 0, i64 %9
  store i8 0, ptr %11, align 1
  %.pr = load i8, ptr %4, align 16
  %12 = icmp eq i8 %.pr, 0
  br i1 %12, label %_ZN11StringUtils13strstr_nocaseEPKcS1_.exit, label %.preheader26.i

.preheader26.i:                                   ; preds = %.lr.ph, %6
  %.02227 = phi ptr [ %4, %6 ], [ %.02145, %.lr.ph ]
  %13 = phi i8 [ %.pr, %6 ], [ %char047, %.lr.ph ]
  %14 = load i8, ptr %.02046, align 1
  %.not33.i = icmp eq i8 %14, 0
  br i1 %.not33.i, label %_ZN11StringUtils13strstr_nocaseEPKcS1_.exit.thread, label %.preheader.i

.preheader.i:                                     ; preds = %.preheader26.i, %29
  %.02034.i = phi i64 [ %30, %29 ], [ 0, %.preheader26.i ]
  %15 = getelementptr inbounds i8, ptr %.02046, i64 %.02034.i
  br label %20

16:                                               ; preds = %24
  %17 = add i64 %.029.i, 1
  %18 = getelementptr inbounds i8, ptr %.02227, i64 %17
  %19 = load i8, ptr %18, align 1
  %.not24.i = icmp eq i8 %19, 0
  br i1 %.not24.i, label %_ZN11StringUtils13strstr_nocaseEPKcS1_.exit.thread31, label %20, !llvm.loop !10

20:                                               ; preds = %16, %.preheader.i
  %.in.i = phi i8 [ %13, %.preheader.i ], [ %19, %16 ]
  %.029.i = phi i64 [ 0, %.preheader.i ], [ %17, %16 ]
  %21 = getelementptr i8, ptr %15, i64 %.029.i
  %22 = load i8, ptr %21, align 1
  %23 = icmp eq i8 %22, 0
  br i1 %23, label %_ZN11StringUtils13strstr_nocaseEPKcS1_.exit.thread, label %24

24:                                               ; preds = %20
  %25 = sext i8 %.in.i to i32
  %26 = sext i8 %22 to i32
  %27 = call i32 @tolower(i32 noundef %26) #10
  %28 = call i32 @tolower(i32 noundef %25) #10
  %.not25.i = icmp eq i32 %27, %28
  br i1 %.not25.i, label %16, label %29

29:                                               ; preds = %24
  %30 = add i64 %.02034.i, 1
  %31 = getelementptr inbounds i8, ptr %.02046, i64 %30
  %32 = load i8, ptr %31, align 1
  %.not.i = icmp eq i8 %32, 0
  br i1 %.not.i, label %_ZN11StringUtils13strstr_nocaseEPKcS1_.exit.thread, label %.preheader.i, !llvm.loop !11

_ZN11StringUtils13strstr_nocaseEPKcS1_.exit:      ; preds = %6
  %33 = icmp eq ptr %.02046, null
  br i1 %33, label %_ZN11StringUtils13strstr_nocaseEPKcS1_.exit.thread, label %_ZN11StringUtils13strstr_nocaseEPKcS1_.exit.thread31

_ZN11StringUtils13strstr_nocaseEPKcS1_.exit.thread31: ; preds = %16, %_ZN11StringUtils13strstr_nocaseEPKcS1_.exit
  %.021.i35 = phi ptr [ %.02046, %_ZN11StringUtils13strstr_nocaseEPKcS1_.exit ], [ %15, %16 ]
  %.0222834 = phi ptr [ %4, %_ZN11StringUtils13strstr_nocaseEPKcS1_.exit ], [ %.02227, %16 ]
  %34 = call i64 @strlen(ptr noundef nonnull dereferenceable(1) %.0222834) #10
  %35 = getelementptr inbounds i8, ptr %.021.i35, i64 %34
  %36 = icmp ne ptr %strchr, null
  %37 = zext i1 %36 to i64
  %38 = add i64 %34, %37
  %39 = getelementptr inbounds i8, ptr %.02145, i64 %38
  %char0 = load i8, ptr %39, align 1
  %.not = icmp eq i8 %char0, 0
  br i1 %.not, label %_ZN11StringUtils13strstr_nocaseEPKcS1_.exit.thread, label %.lr.ph, !llvm.loop !12

_ZN11StringUtils13strstr_nocaseEPKcS1_.exit.thread: ; preds = %_ZN11StringUtils13strstr_nocaseEPKcS1_.exit, %_ZN11StringUtils13strstr_nocaseEPKcS1_.exit.thread31, %.preheader26.i, %29, %20, %2
  %.not42 = phi i1 [ true, %2 ], [ false, %20 ], [ false, %29 ], [ false, %_ZN11StringUtils13strstr_nocaseEPKcS1_.exit ], [ true, %_ZN11StringUtils13strstr_nocaseEPKcS1_.exit.thread31 ], [ false, %.preheader26.i ]
  ret i1 %.not42
}